; Function Attrs: mustprogress uwtable
define noundef zeroext i1 @_ZN5draco17PointCloudEncoder19EncodeAllAttributesEv(ptr nocapture noundef nonnull readonly align 8 dereferenceable(112) %0) unnamed_addr #4 align 2 {
  %2 = getelementptr inbounds i8, ptr %0, i64 64
  %3 = load ptr, ptr %2, align 8
  %4 = getelementptr inbounds i8, ptr %0, i64 72
  %5 = load ptr, ptr %4, align 8
  %.not7 = icmp eq ptr %3, %5
  br i1 %.not7, label %._crit_edge, label %.lr.ph

.lr.ph:                                           ; preds = %1
  %6 = getelementptr inbounds i8, ptr %0, i64 16
  %7 = getelementptr inbounds i8, ptr %0, i64 88
  br label %8

8:                                                ; preds = %8, %.lr.ph
  %.sroa.04.08 = phi ptr [ %3, %.lr.ph ], [ %19, %8 ]
  %9 = load i32, ptr %.sroa.04.08, align 4
  %10 = sext i32 %9 to i64
  %11 = load ptr, ptr %6, align 8
  %12 = getelementptr inbounds %"class.std::unique_ptr.36", ptr %11, i64 %10
  %13 = load ptr, ptr %12, align 8
  %14 = load ptr, ptr %7, align 8
  %15 = load ptr, ptr %13, align 8
  %16 = getelementptr inbounds i8, ptr %15, i64 40
  %17 = load ptr, ptr %16, align 8
  %18 = tail call noundef zeroext i1 %17(ptr noundef nonnull align 8 dereferenceable(72) %13, ptr noundef %14)
  %19 = getelementptr inbounds i8, ptr %.sroa.04.08, i64 4
  %.not = icmp ne ptr %19, %5
  %or.cond.not = select i1 %18, i1 %.not, i1 false
  br i1 %or.cond.not, label %8, label %._crit_edge

._crit_edge:                                      ; preds = %8, %1
  %.not.lcssa = phi i1 [ true, %1 ], [ %18, %8 ]
  ret i1 %.not.lcssa
}